; Listing generated by Microsoft (R) Optimizing Compiler Version 19.00.24215.1 

	TITLE	C:\Users\Nikita\Desktop\Мичник\алгоритмы\masm-test\trash\ConsoleApplication1\ConsoleApplication1\Source.cpp
	.686P
	.XMM
	include listing.inc
	.model	flat

INCLUDELIB MSVCRT
INCLUDELIB OLDNAMES

CONST	SEGMENT
$SG5336	DB	' %d, %d, %d ', 00H
	ORG $+3
$SG5340	DB	'%d', 00H
CONST	ENDS
PUBLIC	___local_stdio_printf_options
PUBLIC	___local_stdio_scanf_options
PUBLIC	__vfprintf_l
PUBLIC	??$__vcrt_va_start_verify_argument_type@QBD@@YAXXZ ; __vcrt_va_start_verify_argument_type<char const * const>
PUBLIC	_printf
PUBLIC	__vfscanf_l
PUBLIC	_scanf
PUBLIC	?f1@@YAXXZ					; f1
PUBLIC	?f2@@YAXXZ					; f2
PUBLIC	_main
PUBLIC	?_OptionsStorage@?1??__local_stdio_printf_options@@9@4_KA ; `__local_stdio_printf_options'::`2'::_OptionsStorage
PUBLIC	?_OptionsStorage@?1??__local_stdio_scanf_options@@9@4_KA ; `__local_stdio_scanf_options'::`2'::_OptionsStorage
EXTRN	__imp____acrt_iob_func:PROC
EXTRN	__imp____stdio_common_vfprintf:PROC
EXTRN	__imp____stdio_common_vfscanf:PROC
;	COMDAT ?_OptionsStorage@?1??__local_stdio_printf_options@@9@4_KA
_BSS	SEGMENT
?_OptionsStorage@?1??__local_stdio_printf_options@@9@4_KA DQ 01H DUP (?) ; `__local_stdio_printf_options'::`2'::_OptionsStorage
_BSS	ENDS
;	COMDAT ?_OptionsStorage@?1??__local_stdio_scanf_options@@9@4_KA
_BSS	SEGMENT
?_OptionsStorage@?1??__local_stdio_scanf_options@@9@4_KA DQ 01H DUP (?) ; `__local_stdio_scanf_options'::`2'::_OptionsStorage
_BSS	ENDS
; Function compile flags: /Odtp
_TEXT	SEGMENT
_n$ = -4						; size = 4
_main	PROC
; File c:\users\nikita\desktop\мичник\алгоритмы\masm-test\trash\consoleapplication1\consoleapplication1\source.cpp
; Line 12
	push	ebp
	mov	ebp, esp
	push	ecx
; Line 13
	call	?f1@@YAXXZ				; f1
; Line 14
	call	?f2@@YAXXZ				; f2
; Line 16
	lea	eax, DWORD PTR _n$[ebp]
	push	eax
	push	OFFSET $SG5340
	call	_scanf
	add	esp, 8
; Line 17
	xor	eax, eax
; Line 18
	mov	esp, ebp
	pop	ebp
	ret	0
_main	ENDP
_TEXT	ENDS
; Function compile flags: /Odtp
_TEXT	SEGMENT
_a$ = -12						; size = 4
_b$ = -8						; size = 4
_c$ = -4						; size = 4
?f2@@YAXXZ PROC						; f2
; File c:\users\nikita\desktop\мичник\алгоритмы\masm-test\trash\consoleapplication1\consoleapplication1\source.cpp
; Line 7
	push	ebp
	mov	ebp, esp
	sub	esp, 12					; 0000000cH
; Line 9
	mov	eax, DWORD PTR _c$[ebp]
	push	eax
	mov	ecx, DWORD PTR _b$[ebp]
	push	ecx
	mov	edx, DWORD PTR _a$[ebp]
	push	edx
	push	OFFSET $SG5336
	call	_printf
	add	esp, 16					; 00000010H
; Line 10
	mov	esp, ebp
	pop	ebp
	ret	0
?f2@@YAXXZ ENDP						; f2
_TEXT	ENDS
; Function compile flags: /Odtp
_TEXT	SEGMENT
_c$ = -12						; size = 4
_b$ = -8						; size = 4
_a$ = -4						; size = 4
?f1@@YAXXZ PROC						; f1
; File c:\users\nikita\desktop\мичник\алгоритмы\masm-test\trash\consoleapplication1\consoleapplication1\source.cpp
; Line 3
	push	ebp
	mov	ebp, esp
	sub	esp, 12					; 0000000cH
; Line 4
	mov	DWORD PTR _a$[ebp], 1
	mov	DWORD PTR _b$[ebp], 2
	mov	DWORD PTR _c$[ebp], 3
; Line 5
	mov	esp, ebp
	pop	ebp
	ret	0
?f1@@YAXXZ ENDP						; f1
_TEXT	ENDS
; Function compile flags: /Odtp
;	COMDAT _scanf
_TEXT	SEGMENT
__Result$ = -8						; size = 4
__ArgList$ = -4						; size = 4
__Format$ = 8						; size = 4
_scanf	PROC						; COMDAT
; File c:\program files (x86)\windows kits\10\include\10.0.10240.0\ucrt\stdio.h
; Line 1276
	push	ebp
	mov	ebp, esp
	sub	esp, 8
; Line 1279
	call	??$__vcrt_va_start_verify_argument_type@QBD@@YAXXZ ; __vcrt_va_start_verify_argument_type<char const * const>
	lea	eax, DWORD PTR __Format$[ebp+4]
	mov	DWORD PTR __ArgList$[ebp], eax
; Line 1280
	mov	ecx, DWORD PTR __ArgList$[ebp]
	push	ecx
	push	0
	mov	edx, DWORD PTR __Format$[ebp]
	push	edx
	push	0
	call	DWORD PTR __imp____acrt_iob_func
	add	esp, 4
	push	eax
	call	__vfscanf_l
	add	esp, 16					; 00000010H
	mov	DWORD PTR __Result$[ebp], eax
; Line 1281
	mov	DWORD PTR __ArgList$[ebp], 0
; Line 1282
	mov	eax, DWORD PTR __Result$[ebp]
; Line 1283
	mov	esp, ebp
	pop	ebp
	ret	0
_scanf	ENDP
_TEXT	ENDS
; Function compile flags: /Odtp
;	COMDAT __vfscanf_l
_TEXT	SEGMENT
__Stream$ = 8						; size = 4
__Format$ = 12						; size = 4
__Locale$ = 16						; size = 4
__ArgList$ = 20						; size = 4
__vfscanf_l PROC					; COMDAT
; File c:\program files (x86)\windows kits\10\include\10.0.10240.0\ucrt\stdio.h
; Line 1058
	push	ebp
	mov	ebp, esp
; Line 1059
	mov	eax, DWORD PTR __ArgList$[ebp]
	push	eax
	mov	ecx, DWORD PTR __Locale$[ebp]
	push	ecx
	mov	edx, DWORD PTR __Format$[ebp]
	push	edx
	mov	eax, DWORD PTR __Stream$[ebp]
	push	eax
	call	___local_stdio_scanf_options
	mov	ecx, DWORD PTR [eax+4]
	push	ecx
	mov	edx, DWORD PTR [eax]
	push	edx
	call	DWORD PTR __imp____stdio_common_vfscanf
	add	esp, 24					; 00000018H
; Line 1062
	pop	ebp
	ret	0
__vfscanf_l ENDP
_TEXT	ENDS
; Function compile flags: /Odtp
;	COMDAT _printf
_TEXT	SEGMENT
__Result$ = -8						; size = 4
__ArgList$ = -4						; size = 4
__Format$ = 8						; size = 4
_printf	PROC						; COMDAT
; File c:\program files (x86)\windows kits\10\include\10.0.10240.0\ucrt\stdio.h
; Line 950
	push	ebp
	mov	ebp, esp
	sub	esp, 8
; Line 953
	call	??$__vcrt_va_start_verify_argument_type@QBD@@YAXXZ ; __vcrt_va_start_verify_argument_type<char const * const>
	lea	eax, DWORD PTR __Format$[ebp+4]
	mov	DWORD PTR __ArgList$[ebp], eax
; Line 954
	mov	ecx, DWORD PTR __ArgList$[ebp]
	push	ecx
	push	0
	mov	edx, DWORD PTR __Format$[ebp]
	push	edx
	push	1
	call	DWORD PTR __imp____acrt_iob_func
	add	esp, 4
	push	eax
	call	__vfprintf_l
	add	esp, 16					; 00000010H
	mov	DWORD PTR __Result$[ebp], eax
; Line 955
	mov	DWORD PTR __ArgList$[ebp], 0
; Line 956
	mov	eax, DWORD PTR __Result$[ebp]
; Line 957
	mov	esp, ebp
	pop	ebp
	ret	0
_printf	ENDP
_TEXT	ENDS
; Function compile flags: /Odtp
;	COMDAT ??$__vcrt_va_start_verify_argument_type@QBD@@YAXXZ
_TEXT	SEGMENT
??$__vcrt_va_start_verify_argument_type@QBD@@YAXXZ PROC	; __vcrt_va_start_verify_argument_type<char const * const>, COMDAT
; File c:\program files (x86)\microsoft visual studio 14.0\vc\include\vadefs.h
; Line 144
	push	ebp
	mov	ebp, esp
; Line 146
	pop	ebp
	ret	0
??$__vcrt_va_start_verify_argument_type@QBD@@YAXXZ ENDP	; __vcrt_va_start_verify_argument_type<char const * const>
_TEXT	ENDS
; Function compile flags: /Odtp
;	COMDAT __vfprintf_l
_TEXT	SEGMENT
__Stream$ = 8						; size = 4
__Format$ = 12						; size = 4
__Locale$ = 16						; size = 4
__ArgList$ = 20						; size = 4
__vfprintf_l PROC					; COMDAT
; File c:\program files (x86)\windows kits\10\include\10.0.10240.0\ucrt\stdio.h
; Line 638
	push	ebp
	mov	ebp, esp
; Line 639
	mov	eax, DWORD PTR __ArgList$[ebp]
	push	eax
	mov	ecx, DWORD PTR __Locale$[ebp]
	push	ecx
	mov	edx, DWORD PTR __Format$[ebp]
	push	edx
	mov	eax, DWORD PTR __Stream$[ebp]
	push	eax
	call	___local_stdio_printf_options
	mov	ecx, DWORD PTR [eax+4]
	push	ecx
	mov	edx, DWORD PTR [eax]
	push	edx
	call	DWORD PTR __imp____stdio_common_vfprintf
	add	esp, 24					; 00000018H
; Line 640
	pop	ebp
	ret	0
__vfprintf_l ENDP
_TEXT	ENDS
; Function compile flags: /Odtp
;	COMDAT ___local_stdio_scanf_options
_TEXT	SEGMENT
___local_stdio_scanf_options PROC			; COMDAT
; File c:\program files (x86)\windows kits\10\include\10.0.10240.0\ucrt\corecrt_stdio_config.h
; Line 82
	push	ebp
	mov	ebp, esp
; Line 84
	mov	eax, OFFSET ?_OptionsStorage@?1??__local_stdio_scanf_options@@9@4_KA ; `__local_stdio_scanf_options'::`2'::_OptionsStorage
; Line 85
	pop	ebp
	ret	0
___local_stdio_scanf_options ENDP
_TEXT	ENDS
; Function compile flags: /Odtp
;	COMDAT ___local_stdio_printf_options
_TEXT	SEGMENT
___local_stdio_printf_options PROC			; COMDAT
; File c:\program files (x86)\windows kits\10\include\10.0.10240.0\ucrt\corecrt_stdio_config.h
; Line 73
	push	ebp
	mov	ebp, esp
; Line 75
	mov	eax, OFFSET ?_OptionsStorage@?1??__local_stdio_printf_options@@9@4_KA ; `__local_stdio_printf_options'::`2'::_OptionsStorage
; Line 76
	pop	ebp
	ret	0
___local_stdio_printf_options ENDP
_TEXT	ENDS
END
